target datalayout = "e-m:e-p270:32:32-p271:32:32-p272:64:64-i64:64-i128:128-f80:128-n8:16:32:64-S128"
target triple = "x86_64-pc-linux-gnu"

%struct.AVCodecParserContext = type { ptr, ptr, i64, i64, i64, i32, i32, i64, i64, i64, i64, i32, i32, [4 x i64], [4 x i64], [4 x i64], i32, i64, [4 x i64], i32, i32, i32, i32, [4 x i64], i64, i64, i32, i32, i32, i32, i32, i32, i32, i32, i32 }
%struct.AACAC3ParseContext = type { %struct.ParseContext, i32, ptr, ptr, i32, i64, i32, i32 }
%struct.ParseContext = type { ptr, i32, i32, i32, i32, i32, i32, i32, i64 }

; Function Attrs: cold nounwind optsize uwtable
define internal i32 @ac3_parse_init(ptr noundef %0) #5 {
  %2 = alloca ptr, align 8
  %3 = alloca ptr, align 8
  store ptr %0, ptr %2, align 8, !tbaa !53
  call void @llvm.lifetime.start.p0(i64 8, ptr %3) #9
  %4 = load ptr, ptr %2, align 8, !tbaa !53
  %5 = getelementptr inbounds nuw %struct.AVCodecParserContext, ptr %4, i32 0, i32 0
  %6 = load ptr, ptr %5, align 8, !tbaa !55
  store ptr %6, ptr %3, align 8, !tbaa !58
  %7 = load ptr, ptr %3, align 8, !tbaa !58
  %8 = getelementptr inbounds nuw %struct.AACAC3ParseContext, ptr %7, i32 0, i32 1
  store i32 7, ptr %8, align 8, !tbaa !60
  %9 = call ptr @av_crc_get_table(i32 noundef 1)
  %10 = load ptr, ptr %3, align 8, !tbaa !58
  %11 = getelementptr inbounds nuw %struct.AACAC3ParseContext, ptr %10, i32 0, i32 3
  store ptr %9, ptr %11, align 8, !tbaa !64
  %12 = load ptr, ptr %3, align 8, !tbaa !58
  %13 = getelementptr inbounds nuw %struct.AACAC3ParseContext, ptr %12, i32 0, i32 2
  store ptr @ac3_sync, ptr %13, align 8, !tbaa !65
  call void @llvm.lifetime.end.p0(i64 8, ptr %3) #9
  ret i32 0
}