; Function Attrs: cold nounwind optsize uwtable
define internal noundef i32 @ac3_parse_init(ptr noundef readonly captures(none) %0) #6 {
  %2 = load ptr, ptr %0, align 8, !tbaa !45
  %3 = getelementptr inbounds nuw i8, ptr %2, i64 48
  store i32 7, ptr %3, align 8, !tbaa !48
  %4 = tail call ptr @av_crc_get_table(i32 noundef 1) #8
  %5 = getelementptr inbounds nuw i8, ptr %2, i64 64
  store ptr %4, ptr %5, align 8, !tbaa !52
  %6 = getelementptr inbounds nuw i8, ptr %2, i64 56
  store ptr @ac3_sync, ptr %6, align 8, !tbaa !53
  ret i32 0
}